; ModuleID = '41/591.c'
source_filename = "41/591.c"
target datalayout = "e-m:e-p270:32:32-p271:32:32-p272:64:64-i64:64-f80:128-n8:16:32:64-S128"
target triple = "x86_64-pc-linux-gnu"

@.str = private unnamed_addr constant [15 x i8] c"%d %d %d %d %d\00", align 1

; Function Attrs: noinline nounwind uwtable
define dso_local i32 @main() #0 {
  %1 = alloca i32, align 4
  %2 = alloca i32, align 4
  %3 = alloca i32, align 4
  %4 = alloca i32, align 4
  %5 = alloca i32, align 4
  %6 = alloca i32, align 4
  %7 = alloca [6 x i32], align 16
  store i32 0, i32* %1, align 4
  store i32 1, i32* %2, align 4
  br label %8

8:                                                ; preds = %147, %0
  %9 = load i32, i32* %2, align 4
  %10 = icmp slt i32 %9, 6
  br i1 %10, label %11, label %150

11:                                               ; preds = %8
  store i32 1, i32* %3, align 4
  br label %12

12:                                               ; preds = %143, %11
  %13 = load i32, i32* %3, align 4
  %14 = icmp slt i32 %13, 6
  br i1 %14, label %15, label %146

15:                                               ; preds = %12
  %16 = load i32, i32* %3, align 4
  %17 = load i32, i32* %2, align 4
  %18 = icmp eq i32 %16, %17
  br i1 %18, label %19, label %20

19:                                               ; preds = %15
  br label %143

20:                                               ; preds = %15
  store i32 1, i32* %4, align 4
  br label %21

21:                                               ; preds = %139, %20
  %22 = load i32, i32* %4, align 4
  %23 = icmp slt i32 %22, 6
  br i1 %23, label %24, label %142

24:                                               ; preds = %21
  %25 = load i32, i32* %4, align 4
  %26 = load i32, i32* %2, align 4
  %27 = icmp eq i32 %25, %26
  br i1 %27, label %32, label %28

28:                                               ; preds = %24
  %29 = load i32, i32* %4, align 4
  %30 = load i32, i32* %3, align 4
  %31 = icmp eq i32 %29, %30
  br i1 %31, label %32, label %33

32:                                               ; preds = %28, %24
  br label %139

33:                                               ; preds = %28
  store i32 1, i32* %5, align 4
  br label %34

34:                                               ; preds = %135, %33
  %35 = load i32, i32* %5, align 4
  %36 = icmp slt i32 %35, 6
  br i1 %36, label %37, label %138

37:                                               ; preds = %34
  %38 = load i32, i32* %5, align 4
  %39 = load i32, i32* %2, align 4
  %40 = icmp eq i32 %38, %39
  br i1 %40, label %49, label %41

41:                                               ; preds = %37
  %42 = load i32, i32* %5, align 4
  %43 = load i32, i32* %3, align 4
  %44 = icmp eq i32 %42, %43
  br i1 %44, label %49, label %45

45:                                               ; preds = %41
  %46 = load i32, i32* %5, align 4
  %47 = load i32, i32* %4, align 4
  %48 = icmp eq i32 %46, %47
  br i1 %48, label %49, label %50

49:                                               ; preds = %45, %41, %37
  br label %135

50:                                               ; preds = %45
  store i32 1, i32* %6, align 4
  br label %51

51:                                               ; preds = %131, %50
  %52 = load i32, i32* %6, align 4
  %53 = icmp slt i32 %52, 6
  br i1 %53, label %54, label %134

54:                                               ; preds = %51
  %55 = load i32, i32* %6, align 4
  %56 = icmp eq i32 %55, 2
  br i1 %56, label %60, label %57

57:                                               ; preds = %54
  %58 = load i32, i32* %6, align 4
  %59 = icmp eq i32 %58, 3
  br i1 %59, label %60, label %61

60:                                               ; preds = %57, %54
  br label %131

61:                                               ; preds = %57
  %62 = load i32, i32* %6, align 4
  %63 = load i32, i32* %2, align 4
  %64 = icmp eq i32 %62, %63
  br i1 %64, label %77, label %65

65:                                               ; preds = %61
  %66 = load i32, i32* %6, align 4
  %67 = load i32, i32* %3, align 4
  %68 = icmp eq i32 %66, %67
  br i1 %68, label %77, label %69

69:                                               ; preds = %65
  %70 = load i32, i32* %6, align 4
  %71 = load i32, i32* %4, align 4
  %72 = icmp eq i32 %70, %71
  br i1 %72, label %77, label %73

73:                                               ; preds = %69
  %74 = load i32, i32* %6, align 4
  %75 = load i32, i32* %5, align 4
  %76 = icmp eq i32 %74, %75
  br i1 %76, label %77, label %78

77:                                               ; preds = %73, %69, %65, %61
  br label %131

78:                                               ; preds = %73
  %79 = load i32, i32* %6, align 4
  %80 = icmp eq i32 %79, 1
  %81 = zext i1 %80 to i32
  %82 = load i32, i32* %2, align 4
  %83 = sext i32 %82 to i64
  %84 = getelementptr inbounds [6 x i32], [6 x i32]* %7, i64 0, i64 %83
  store i32 %81, i32* %84, align 4
  %85 = load i32, i32* %3, align 4
  %86 = icmp eq i32 %85, 2
  %87 = zext i1 %86 to i32
  %88 = load i32, i32* %3, align 4
  %89 = sext i32 %88 to i64
  %90 = getelementptr inbounds [6 x i32], [6 x i32]* %7, i64 0, i64 %89
  store i32 %87, i32* %90, align 4
  %91 = load i32, i32* %2, align 4
  %92 = icmp eq i32 %91, 5
  %93 = zext i1 %92 to i32
  %94 = load i32, i32* %4, align 4
  %95 = sext i32 %94 to i64
  %96 = getelementptr inbounds [6 x i32], [6 x i32]* %7, i64 0, i64 %95
  store i32 %93, i32* %96, align 4
  %97 = load i32, i32* %4, align 4
  %98 = icmp ne i32 %97, 1
  %99 = zext i1 %98 to i32
  %100 = load i32, i32* %5, align 4
  %101 = sext i32 %100 to i64
  %102 = getelementptr inbounds [6 x i32], [6 x i32]* %7, i64 0, i64 %101
  store i32 %99, i32* %102, align 4
  %103 = load i32, i32* %5, align 4
  %104 = icmp eq i32 %103, 1
  %105 = zext i1 %104 to i32
  %106 = load i32, i32* %6, align 4
  %107 = sext i32 %106 to i64
  %108 = getelementptr inbounds [6 x i32], [6 x i32]* %7, i64 0, i64 %107
  store i32 %105, i32* %108, align 4
  %109 = getelementptr inbounds [6 x i32], [6 x i32]* %7, i64 0, i64 1
  %110 = load i32, i32* %109, align 4
  %111 = icmp eq i32 %110, 1
  br i1 %111, label %112, label %130

112:                                              ; preds = %78
  %113 = getelementptr inbounds [6 x i32], [6 x i32]* %7, i64 0, i64 2
  %114 = load i32, i32* %113, align 8
  %115 = icmp eq i32 %114, 1
  br i1 %115, label %116, label %130

116:                                              ; preds = %112
  %117 = getelementptr inbounds [6 x i32], [6 x i32]* %7, i64 0, i64 3
  %118 = load i32, i32* %117, align 4
  %119 = icmp eq i32 %118, 0
  br i1 %119, label %120, label %129

120:                                              ; preds = %116
  %121 = getelementptr inbounds [6 x i32], [6 x i32]* %7, i64 0, i64 4
  %122 = load i32, i32* %121, align 16
  %123 = icmp eq i32 %122, 0
  br i1 %123, label %124, label %129

124:                                              ; preds = %120
  %125 = getelementptr inbounds [6 x i32], [6 x i32]* %7, i64 0, i64 5
  %126 = load i32, i32* %125, align 4
  %127 = icmp eq i32 %126, 0
  br i1 %127, label %128, label %129

128:                                              ; preds = %124
  br label %151

129:                                              ; preds = %124, %120, %116
  br label %130

130:                                              ; preds = %129, %112, %78
  br label %131

131:                                              ; preds = %130, %77, %60
  %132 = load i32, i32* %6, align 4
  %133 = add nsw i32 %132, 1
  store i32 %133, i32* %6, align 4
  br label %51

134:                                              ; preds = %51
  br label %135

135:                                              ; preds = %134, %49
  %136 = load i32, i32* %5, align 4
  %137 = add nsw i32 %136, 1
  store i32 %137, i32* %5, align 4
  br label %34

138:                                              ; preds = %34
  br label %139

139:                                              ; preds = %138, %32
  %140 = load i32, i32* %4, align 4
  %141 = add nsw i32 %140, 1
  store i32 %141, i32* %4, align 4
  br label %21

142:                                              ; preds = %21
  br label %143

143:                                              ; preds = %142, %19
  %144 = load i32, i32* %3, align 4
  %145 = add nsw i32 %144, 1
  store i32 %145, i32* %3, align 4
  br label %12

146:                                              ; preds = %12
  br label %147

147:                                              ; preds = %146
  %148 = load i32, i32* %2, align 4
  %149 = add nsw i32 %148, 1
  store i32 %149, i32* %2, align 4
  br label %8

150:                                              ; preds = %8
  br label %151

151:                                              ; preds = %150, %128
  %152 = load i32, i32* %2, align 4
  %153 = load i32, i32* %3, align 4
  %154 = load i32, i32* %4, align 4
  %155 = load i32, i32* %5, align 4
  %156 = load i32, i32* %6, align 4
  %157 = call i32 (i8*, ...) @printf(i8* getelementptr inbounds ([15 x i8], [15 x i8]* @.str, i64 0, i64 0), i32 %152, i32 %153, i32 %154, i32 %155, i32 %156)
  ret i32 0
}

declare dso_local i32 @printf(i8*, ...) #1


!llvm.module.flags = !{!0}
!llvm.ident = !{!1}

!0 = !{i32 1, !"wchar_size", i32 4}
!1 = !{!"clang version 10.0.0-4ubuntu1 "}
